target datalayout = "e-m:e-p270:32:32-p271:32:32-p272:64:64-i64:64-i128:128-f80:128-n8:16:32:64-S128"
target triple = "x86_64-unknown-linux-gnu"

%"class.google::protobuf::MessageLite" = type { ptr }
%"struct.google::protobuf::internal::ArenaStringPtr" = type { ptr }
%"class.net::SourceAddressTokens" = type { %"class.google::protobuf::MessageLite", %"struct.google::protobuf::internal::ArenaStringPtr", ptr, [1 x i32], i32, %"class.google::protobuf::RepeatedPtrField" }
%"class.google::protobuf::RepeatedPtrField" = type { %"class.google::protobuf::internal::RepeatedPtrFieldBase" }
%"class.google::protobuf::internal::RepeatedPtrFieldBase" = type { ptr, i32, i32, ptr }
%"struct.google::protobuf::internal::RepeatedPtrFieldBase::Rep" = type { i32, [1 x ptr] }

@_ZN3net19SourceAddressTokens17default_instance_E = dso_local global ptr null, align 8
@_ZN6google8protobuf8internal13empty_string_B5cxx11E = external global ptr, align 8

; Function Attrs: mustprogress nounwind uwtable
define linkonce_odr dso_local void @_ZN6google8protobuf8internal18GenericTypeHandlerIN3net18SourceAddressTokenEE6DeleteEPS4_PNS0_5ArenaE(ptr noundef %value, ptr noundef %arena) #0 comdat align 2 {
entry:
  %value.addr = alloca ptr, align 8
  %arena.addr = alloca ptr, align 8
  store ptr %value, ptr %value.addr, align 8
  store ptr %arena, ptr %arena.addr, align 8
  %0 = load ptr, ptr %arena.addr, align 8
  %cmp = icmp eq ptr %0, null
  br i1 %cmp, label %if.then, label %if.end

if.then:                                          ; preds = %entry
  %1 = load ptr, ptr %value.addr, align 8
  %isnull = icmp eq ptr %1, null
  br i1 %isnull, label %delete.end, label %delete.notnull

delete.notnull:                                   ; preds = %if.then
  %vtable = load ptr, ptr %1, align 8
  %vfn = getelementptr inbounds ptr, ptr %vtable, i64 1
  %2 = load ptr, ptr %vfn, align 8
  call void %2(ptr noundef nonnull align 8 dereferenceable(56) %1) #12
  br label %delete.end

delete.end:                                       ; preds = %delete.notnull, %if.then
  br label %if.end

if.end:                                           ; preds = %delete.end, %entry
  ret void
}

; Function Attrs: mustprogress nounwind uwtable
define linkonce_odr dso_local noundef ptr @_ZN6google8protobuf8internal20RepeatedPtrFieldBase4castINS0_16RepeatedPtrFieldIN3net18SourceAddressTokenEE11TypeHandlerEEEPNT_4TypeEPv(ptr noundef %element) #0 comdat align 2 {
entry:
  %element.addr = alloca ptr, align 8
  store ptr %element, ptr %element.addr, align 8
  %0 = load ptr, ptr %element.addr, align 8
  ret ptr %0
}

; Function Attrs: mustprogress nounwind uwtable
define linkonce_odr dso_local void @_ZN6google8protobuf8internal20RepeatedPtrFieldBaseD2Ev(ptr noundef nonnull align 8 dereferenceable(24) %this) unnamed_addr #0 comdat align 2 {
entry:
  %this.addr = alloca ptr, align 8
  store ptr %this, ptr %this.addr, align 8
  ret void
}

; Function Attrs: mustprogress uwtable
define linkonce_odr dso_local void @_ZN6google8protobuf8internal20RepeatedPtrFieldBase7DestroyINS0_16RepeatedPtrFieldIN3net18SourceAddressTokenEE11TypeHandlerEEEvv(ptr noundef nonnull align 8 dereferenceable(24) %this) #1 comdat align 2 {
entry:
  %this.addr = alloca ptr, align 8
  %i = alloca i32, align 4
  store ptr %this, ptr %this.addr, align 8
  %this1 = load ptr, ptr %this.addr, align 8
  %rep_ = getelementptr inbounds %"class.google::protobuf::internal::RepeatedPtrFieldBase", ptr %this1, i32 0, i32 3
  %0 = load ptr, ptr %rep_, align 8
  %cmp = icmp ne ptr %0, null
  br i1 %cmp, label %if.then, label %if.end9

if.then:                                          ; preds = %entry
  store i32 0, ptr %i, align 4
  br label %for.cond

for.cond:                                         ; preds = %for.inc, %if.then
  %1 = load i32, ptr %i, align 4
  %rep_2 = getelementptr inbounds %"class.google::protobuf::internal::RepeatedPtrFieldBase", ptr %this1, i32 0, i32 3
  %2 = load ptr, ptr %rep_2, align 8
  %allocated_size = getelementptr inbounds %"struct.google::protobuf::internal::RepeatedPtrFieldBase::Rep", ptr %2, i32 0, i32 0
  %3 = load i32, ptr %allocated_size, align 8
  %cmp3 = icmp slt i32 %1, %3
  br i1 %cmp3, label %for.body, label %for.end

for.body:                                         ; preds = %for.cond
  %rep_4 = getelementptr inbounds %"class.google::protobuf::internal::RepeatedPtrFieldBase", ptr %this1, i32 0, i32 3
  %4 = load ptr, ptr %rep_4, align 8
  %elements = getelementptr inbounds %"struct.google::protobuf::internal::RepeatedPtrFieldBase::Rep", ptr %4, i32 0, i32 1
  %5 = load i32, ptr %i, align 4
  %idxprom = sext i32 %5 to i64
  %arrayidx = getelementptr inbounds [1 x ptr], ptr %elements, i64 0, i64 %idxprom
  %6 = load ptr, ptr %arrayidx, align 8
  %call = call noundef ptr @_ZN6google8protobuf8internal20RepeatedPtrFieldBase4castINS0_16RepeatedPtrFieldIN3net18SourceAddressTokenEE11TypeHandlerEEEPNT_4TypeEPv(ptr noundef %6)
  %arena_ = getelementptr inbounds %"class.google::protobuf::internal::RepeatedPtrFieldBase", ptr %this1, i32 0, i32 0
  %7 = load ptr, ptr %arena_, align 8
  call void @_ZN6google8protobuf8internal18GenericTypeHandlerIN3net18SourceAddressTokenEE6DeleteEPS4_PNS0_5ArenaE(ptr noundef %call, ptr noundef %7)
  br label %for.inc

for.inc:                                          ; preds = %for.body
  %8 = load i32, ptr %i, align 4
  %inc = add nsw i32 %8, 1
  store i32 %inc, ptr %i, align 4
  br label %for.cond, !llvm.loop !16

for.end:                                          ; preds = %for.cond
  %arena_5 = getelementptr inbounds %"class.google::protobuf::internal::RepeatedPtrFieldBase", ptr %this1, i32 0, i32 0
  %9 = load ptr, ptr %arena_5, align 8
  %cmp6 = icmp eq ptr %9, null
  br i1 %cmp6, label %if.then7, label %if.end

if.then7:                                         ; preds = %for.end
  %rep_8 = getelementptr inbounds %"class.google::protobuf::internal::RepeatedPtrFieldBase", ptr %this1, i32 0, i32 3
  %10 = load ptr, ptr %rep_8, align 8
  %isnull = icmp eq ptr %10, null
  br i1 %isnull, label %delete.end, label %delete.notnull

delete.notnull:                                   ; preds = %if.then7
  call void @_ZdaPv(ptr noundef %10) #14
  br label %delete.end

delete.end:                                       ; preds = %delete.notnull, %if.then7
  br label %if.end

if.end:                                           ; preds = %delete.end, %for.end
  br label %if.end9

if.end9:                                          ; preds = %if.end, %entry
  %rep_10 = getelementptr inbounds %"class.google::protobuf::internal::RepeatedPtrFieldBase", ptr %this1, i32 0, i32 3
  store ptr null, ptr %rep_10, align 8
  ret void
}

; Function Attrs: mustprogress nounwind uwtable
define linkonce_odr dso_local noundef nonnull align 8 dereferenceable(32) ptr @_ZN6google8protobuf8internal27GetEmptyStringAlreadyInitedB5cxx11Ev() #0 comdat {
entry:
  %0 = load ptr, ptr @_ZN6google8protobuf8internal13empty_string_B5cxx11E, align 8
  ret ptr %0
}

; Function Attrs: mustprogress nounwind uwtable
define linkonce_odr dso_local void @_ZN6google8protobuf16RepeatedPtrFieldIN3net18SourceAddressTokenEED2Ev(ptr noundef nonnull align 8 dereferenceable(24) %this) unnamed_addr #0 comdat align 2 personality ptr @__gxx_personality_v0 {
entry:
  %this.addr = alloca ptr, align 8
  store ptr %this, ptr %this.addr, align 8
  %this1 = load ptr, ptr %this.addr, align 8
  invoke void @_ZN6google8protobuf8internal20RepeatedPtrFieldBase7DestroyINS0_16RepeatedPtrFieldIN3net18SourceAddressTokenEE11TypeHandlerEEEvv(ptr noundef nonnull align 8 dereferenceable(24) %this1)
          to label %invoke.cont unwind label %terminate.lpad

invoke.cont:                                      ; preds = %entry
  call void @_ZN6google8protobuf8internal20RepeatedPtrFieldBaseD2Ev(ptr noundef nonnull align 8 dereferenceable(24) %this1) #12
  ret void

terminate.lpad:                                   ; preds = %entry
  %0 = landingpad { ptr, i32 }
          catch ptr null
  %1 = extractvalue { ptr, i32 } %0, 0
  call void @__clang_call_terminate(ptr %1) #15
  unreachable
}

; Function Attrs: mustprogress uwtable
define dso_local void @_ZN3net19SourceAddressTokens10SharedDtorEv(ptr noundef nonnull align 8 dereferenceable(56) %this) #1 align 2 {
entry:
  %this.addr = alloca ptr, align 8
  store ptr %this, ptr %this.addr, align 8
  %this1 = load ptr, ptr %this.addr, align 8
  %_unknown_fields_ = getelementptr inbounds %"class.net::SourceAddressTokens", ptr %this1, i32 0, i32 1
  %call = call noundef nonnull align 8 dereferenceable(32) ptr @_ZN6google8protobuf8internal27GetEmptyStringAlreadyInitedB5cxx11Ev()
  call void @_ZN6google8protobuf8internal14ArenaStringPtr14DestroyNoArenaEPKNSt7__cxx1112basic_stringIcSt11char_traitsIcESaIcEEE(ptr noundef nonnull align 8 dereferenceable(8) %_unknown_fields_, ptr noundef %call)
  %0 = load ptr, ptr @_ZN3net19SourceAddressTokens17default_instance_E, align 8
  %cmp = icmp ne ptr %this1, %0
  br i1 %cmp, label %if.then, label %if.end

if.then:                                          ; preds = %entry
  br label %if.end

if.end:                                           ; preds = %if.then, %entry
  ret void
}

; Function Attrs: mustprogress nounwind uwtable
define dso_local void @_ZN3net19SourceAddressTokensD2Ev(ptr noundef nonnull align 8 dereferenceable(56) %this) unnamed_addr #0 align 2 personality ptr @__gxx_personality_v0 {
entry:
  %this.addr = alloca ptr, align 8
  store ptr %this, ptr %this.addr, align 8
  %this1 = load ptr, ptr %this.addr, align 8
  store ptr getelementptr inbounds ({ [18 x ptr] }, ptr @_ZTVN3net19SourceAddressTokensE, i32 0, i32 0, i32 2), ptr %this1, align 8
  invoke void @_ZN3net19SourceAddressTokens10SharedDtorEv(ptr noundef nonnull align 8 dereferenceable(56) %this1)
          to label %invoke.cont unwind label %terminate.lpad

invoke.cont:                                      ; preds = %entry
  %tokens_ = getelementptr inbounds %"class.net::SourceAddressTokens", ptr %this1, i32 0, i32 5
  call void @_ZN6google8protobuf16RepeatedPtrFieldIN3net18SourceAddressTokenEED2Ev(ptr noundef nonnull align 8 dereferenceable(24) %tokens_) #12
  call void @_ZN6google8protobuf11MessageLiteD2Ev(ptr noundef nonnull align 8 dereferenceable(8) %this1) #12
  ret void

terminate.lpad:                                   ; preds = %entry
  %0 = landingpad { ptr, i32 }
          catch ptr null
  %1 = extractvalue { ptr, i32 } %0, 0
  call void @__clang_call_terminate(ptr %1) #15
  unreachable
}