; Function Attrs: mustprogress nounwind uwtable
define dso_local void @_ZN3net19SourceAddressTokensD2Ev(ptr noundef nonnull align 8 dereferenceable(56) %this) unnamed_addr #0 align 2 personality ptr @__gxx_personality_v0 {
entry:
  store ptr getelementptr inbounds ({ [18 x ptr] }, ptr @_ZTVN3net19SourceAddressTokensE, i64 0, i32 0, i64 2), ptr %this, align 8
  %_unknown_fields_.i = getelementptr inbounds i8, ptr %this, i64 8
  %0 = load ptr, ptr @_ZN6google8protobuf8internal13empty_string_B5cxx11E, align 8
  invoke void @_ZN6google8protobuf8internal14ArenaStringPtr14DestroyNoArenaEPKNSt7__cxx1112basic_stringIcSt11char_traitsIcESaIcEEE(ptr noundef nonnull align 8 dereferenceable(8) %_unknown_fields_.i, ptr noundef nonnull %0)
          to label %invoke.cont unwind label %terminate.lpad

invoke.cont:                                      ; preds = %entry
  %tokens_ = getelementptr inbounds i8, ptr %this, i64 32
  %rep_.i.i = getelementptr inbounds i8, ptr %this, i64 48
  %1 = load ptr, ptr %rep_.i.i, align 8
  %cmp.not.i.i = icmp eq ptr %1, null
  br i1 %cmp.not.i.i, label %_ZN6google8protobuf16RepeatedPtrFieldIN3net18SourceAddressTokenEED2Ev.exit, label %for.cond.preheader.i.i

for.cond.preheader.i.i:                           ; preds = %invoke.cont
  %2 = load i32, ptr %1, align 8
  %cmp33.i.i = icmp sgt i32 %2, 0
  br i1 %cmp33.i.i, label %for.body.i.i, label %for.end.i.i

for.body.i.i:                                     ; preds = %for.cond.preheader.i.i, %_ZN6google8protobuf8internal18GenericTypeHandlerIN3net18SourceAddressTokenEE6DeleteEPS4_PNS0_5ArenaE.exit.i.i
  %3 = phi i32 [ %8, %_ZN6google8protobuf8internal18GenericTypeHandlerIN3net18SourceAddressTokenEE6DeleteEPS4_PNS0_5ArenaE.exit.i.i ], [ %2, %for.cond.preheader.i.i ]
  %4 = phi ptr [ %9, %_ZN6google8protobuf8internal18GenericTypeHandlerIN3net18SourceAddressTokenEE6DeleteEPS4_PNS0_5ArenaE.exit.i.i ], [ %1, %for.cond.preheader.i.i ]
  %indvars.iv.i.i = phi i64 [ %indvars.iv.next.i.i, %_ZN6google8protobuf8internal18GenericTypeHandlerIN3net18SourceAddressTokenEE6DeleteEPS4_PNS0_5ArenaE.exit.i.i ], [ 0, %for.cond.preheader.i.i ]
  %elements.i.i = getelementptr inbounds i8, ptr %4, i64 8
  %arrayidx.i.i = getelementptr inbounds [1 x ptr], ptr %elements.i.i, i64 0, i64 %indvars.iv.i.i
  %5 = load ptr, ptr %arrayidx.i.i, align 8
  %6 = load ptr, ptr %tokens_, align 8
  %cmp.i.i.i = icmp ne ptr %6, null
  %isnull.i.i.i = icmp eq ptr %5, null
  %or.cond.i.i.i = or i1 %isnull.i.i.i, %cmp.i.i.i
  br i1 %or.cond.i.i.i, label %_ZN6google8protobuf8internal18GenericTypeHandlerIN3net18SourceAddressTokenEE6DeleteEPS4_PNS0_5ArenaE.exit.i.i, label %delete.notnull.i.i.i

delete.notnull.i.i.i:                             ; preds = %for.body.i.i
  %vtable.i.i.i = load ptr, ptr %5, align 8
  %vfn.i.i.i = getelementptr inbounds i8, ptr %vtable.i.i.i, i64 8
  %7 = load ptr, ptr %vfn.i.i.i, align 8
  tail call void %7(ptr noundef nonnull align 8 dereferenceable(56) %5) #14
  %.pre.i.i = load ptr, ptr %rep_.i.i, align 8
  %.pre7.i.i = load i32, ptr %.pre.i.i, align 8
  br label %_ZN6google8protobuf8internal18GenericTypeHandlerIN3net18SourceAddressTokenEE6DeleteEPS4_PNS0_5ArenaE.exit.i.i

_ZN6google8protobuf8internal18GenericTypeHandlerIN3net18SourceAddressTokenEE6DeleteEPS4_PNS0_5ArenaE.exit.i.i: ; preds = %delete.notnull.i.i.i, %for.body.i.i
  %8 = phi i32 [ %3, %for.body.i.i ], [ %.pre7.i.i, %delete.notnull.i.i.i ]
  %9 = phi ptr [ %4, %for.body.i.i ], [ %.pre.i.i, %delete.notnull.i.i.i ]
  %indvars.iv.next.i.i = add nuw nsw i64 %indvars.iv.i.i, 1
  %10 = sext i32 %8 to i64
  %cmp3.i.i = icmp slt i64 %indvars.iv.next.i.i, %10
  br i1 %cmp3.i.i, label %for.body.i.i, label %for.end.i.i, !llvm.loop !7

for.end.i.i:                                      ; preds = %_ZN6google8protobuf8internal18GenericTypeHandlerIN3net18SourceAddressTokenEE6DeleteEPS4_PNS0_5ArenaE.exit.i.i, %for.cond.preheader.i.i
  %.lcssa.i.i = phi ptr [ %1, %for.cond.preheader.i.i ], [ %9, %_ZN6google8protobuf8internal18GenericTypeHandlerIN3net18SourceAddressTokenEE6DeleteEPS4_PNS0_5ArenaE.exit.i.i ]
  %11 = load ptr, ptr %tokens_, align 8
  %cmp6.i.i = icmp eq ptr %11, null
  br i1 %cmp6.i.i, label %delete.notnull.i.i, label %_ZN6google8protobuf16RepeatedPtrFieldIN3net18SourceAddressTokenEED2Ev.exit

delete.notnull.i.i:                               ; preds = %for.end.i.i
  tail call void @_ZdaPv(ptr noundef nonnull %.lcssa.i.i) #16
  br label %_ZN6google8protobuf16RepeatedPtrFieldIN3net18SourceAddressTokenEED2Ev.exit

_ZN6google8protobuf16RepeatedPtrFieldIN3net18SourceAddressTokenEED2Ev.exit: ; preds = %invoke.cont, %for.end.i.i, %delete.notnull.i.i
  store ptr null, ptr %rep_.i.i, align 8
  tail call void @_ZN6google8protobuf11MessageLiteD2Ev(ptr noundef nonnull align 8 dereferenceable(8) %this) #14
  ret void

terminate.lpad:                                   ; preds = %entry
  %12 = landingpad { ptr, i32 }
          catch ptr null
  %13 = extractvalue { ptr, i32 } %12, 0
  tail call void @__clang_call_terminate(ptr %13) #17
  unreachable
}